; Function Attrs: nounwind uwtable
define internal zeroext i1 @ssl_cf_data_pending(ptr noundef %0, ptr noundef %1) #2 {
  %3 = getelementptr inbounds nuw i8, ptr %0, i64 16
  %4 = load ptr, ptr %3, align 8
  %5 = getelementptr inbounds nuw i8, ptr %4, i64 56
  %.sroa.0.0.copyload = load ptr, ptr %5, align 8
  store ptr %1, ptr %5, align 8
  %6 = load ptr, ptr @Curl_ssl, align 8
  %7 = getelementptr inbounds nuw i8, ptr %6, i64 72
  %8 = load ptr, ptr %7, align 8
  %9 = tail call zeroext i1 %8(ptr noundef %0, ptr noundef %1) #18
  br i1 %9, label %17, label %10

10:                                               ; preds = %2
  %11 = getelementptr inbounds nuw i8, ptr %0, i64 8
  %12 = load ptr, ptr %11, align 8
  %13 = load ptr, ptr %12, align 8
  %14 = getelementptr inbounds nuw i8, ptr %13, i64 56
  %15 = load ptr, ptr %14, align 8
  %16 = tail call zeroext i1 %15(ptr noundef nonnull %12, ptr noundef %1) #18
  br label %17

17:                                               ; preds = %2, %10
  %.0 = phi i1 [ %16, %10 ], [ true, %2 ]
  %18 = load ptr, ptr %3, align 8
  %19 = getelementptr inbounds nuw i8, ptr %18, i64 56
  store ptr %.sroa.0.0.copyload, ptr %19, align 8
  ret i1 %.0
}